target datalayout = "e-m:e-p270:32:32-p271:32:32-p272:64:64-i64:64-i128:128-f80:128-n8:16:32:64-S128"
target triple = "x86_64-pc-linux-gnu"

%struct.sapi_header_struct = type { ptr, i64 }

; Function Attrs: nounwind uwtable
define internal void @add_response_header(ptr noundef %0, ptr noundef %1) #0 {
  %3 = alloca ptr, align 8
  %4 = alloca ptr, align 8
  %5 = alloca ptr, align 8
  %6 = alloca ptr, align 8
  %7 = alloca i64, align 8
  %8 = alloca i8, align 1
  store ptr %0, ptr %3, align 8, !tbaa !63
  store ptr %1, ptr %4, align 8, !tbaa !9
  call void @llvm.lifetime.start.p0(i64 8, ptr %5) #20
  call void @llvm.lifetime.start.p0(i64 8, ptr %6) #20
  call void @llvm.lifetime.start.p0(i64 8, ptr %7) #20
  call void @llvm.lifetime.start.p0(i64 1, ptr %8) #20
  %9 = load ptr, ptr %3, align 8, !tbaa !63
  %10 = getelementptr inbounds nuw %struct.sapi_header_struct, ptr %9, i32 0, i32 1
  %11 = load i64, ptr %10, align 8, !tbaa !64
  %12 = icmp ugt i64 %11, 0
  br i1 %12, label %13, label %402

13:                                               ; preds = %2
  %14 = load ptr, ptr %3, align 8, !tbaa !63
  %15 = getelementptr inbounds nuw %struct.sapi_header_struct, ptr %14, i32 0, i32 0
  %16 = load ptr, ptr %15, align 8, !tbaa !66
  %17 = call ptr @strchr(ptr noundef %16, i32 noundef 58) #21
  store ptr %17, ptr %6, align 8, !tbaa !67
  %18 = load ptr, ptr %6, align 8, !tbaa !67
  %19 = load ptr, ptr %3, align 8, !tbaa !63
  %20 = getelementptr inbounds nuw %struct.sapi_header_struct, ptr %19, i32 0, i32 0
  %21 = load ptr, ptr %20, align 8, !tbaa !66
  %22 = ptrtoint ptr %18 to i64
  %23 = ptrtoint ptr %21 to i64
  %24 = sub i64 %22, %23
  store i64 %24, ptr %7, align 8, !tbaa !68
  %25 = load ptr, ptr %6, align 8, !tbaa !67
  %26 = icmp ne ptr %25, null
  br i1 %26, label %27, label %401

27:                                               ; preds = %13
  %28 = load i64, ptr %7, align 8, !tbaa !68
  %29 = icmp sgt i64 %28, 0
  br i1 %29, label %30, label %401

30:                                               ; preds = %27
  br label %31

31:                                               ; preds = %58, %30
  %32 = load i64, ptr %7, align 8, !tbaa !68
  %33 = icmp sgt i64 %32, 0
  br i1 %33, label %34, label %56

34:                                               ; preds = %31
  %35 = load ptr, ptr %3, align 8, !tbaa !63
  %36 = getelementptr inbounds nuw %struct.sapi_header_struct, ptr %35, i32 0, i32 0
  %37 = load ptr, ptr %36, align 8, !tbaa !66
  %38 = load i64, ptr %7, align 8, !tbaa !68
  %39 = sub nsw i64 %38, 1
  %40 = getelementptr inbounds i8, ptr %37, i64 %39
  %41 = load i8, ptr %40, align 1, !tbaa !11
  %42 = sext i8 %41 to i32
  %43 = icmp eq i32 %42, 32
  br i1 %43, label %54, label %44

44:                                               ; preds = %34
  %45 = load ptr, ptr %3, align 8, !tbaa !63
  %46 = getelementptr inbounds nuw %struct.sapi_header_struct, ptr %45, i32 0, i32 0
  %47 = load ptr, ptr %46, align 8, !tbaa !66
  %48 = load i64, ptr %7, align 8, !tbaa !68
  %49 = sub nsw i64 %48, 1
  %50 = getelementptr inbounds i8, ptr %47, i64 %49
  %51 = load i8, ptr %50, align 1, !tbaa !11
  %52 = sext i8 %51 to i32
  %53 = icmp eq i32 %52, 9
  br label %54

54:                                               ; preds = %44, %34
  %55 = phi i1 [ true, %34 ], [ %53, %44 ]
  br label %56

56:                                               ; preds = %54, %31
  %57 = phi i1 [ false, %31 ], [ %55, %54 ]
  br i1 %57, label %58, label %61

58:                                               ; preds = %56
  %59 = load i64, ptr %7, align 8, !tbaa !68
  %60 = add nsw i64 %59, -1
  store i64 %60, ptr %7, align 8, !tbaa !68
  br label %31

61:                                               ; preds = %56
  %62 = load i64, ptr %7, align 8, !tbaa !68
  %63 = icmp ne i64 %62, 0
  br i1 %63, label %64, label %400

64:                                               ; preds = %61
  %65 = load i64, ptr %7, align 8, !tbaa !68
  %66 = add nsw i64 %65, 1
  %67 = icmp sgt i64 %66, 32768
  %68 = xor i1 %67, true
  %69 = xor i1 %68, true
  %70 = zext i1 %69 to i32
  %71 = sext i32 %70 to i64
  %72 = call i64 @llvm.expect.i64(i64 %71, i64 0)
  %73 = icmp ne i64 %72, 0
  %74 = zext i1 %73 to i8
  store i8 %74, ptr %8, align 1, !tbaa !69
  br i1 %73, label %75, label %339

75:                                               ; preds = %64
  %76 = load i64, ptr %7, align 8, !tbaa !68
  %77 = add nsw i64 %76, 1
  %78 = call i1 @llvm.is.constant.i64(i64 %77)
  br i1 %78, label %79, label %333

79:                                               ; preds = %75
  %80 = load i64, ptr %7, align 8, !tbaa !68
  %81 = add nsw i64 %80, 1
  %82 = icmp sle i64 %81, 8
  br i1 %82, label %83, label %85

83:                                               ; preds = %79
  %84 = call noalias ptr @_emalloc_8()
  br label %331

85:                                               ; preds = %79
  %86 = load i64, ptr %7, align 8, !tbaa !68
  %87 = add nsw i64 %86, 1
  %88 = icmp sle i64 %87, 16
  br i1 %88, label %89, label %91

89:                                               ; preds = %85
  %90 = call noalias ptr @_emalloc_16()
  br label %329

91:                                               ; preds = %85
  %92 = load i64, ptr %7, align 8, !tbaa !68
  %93 = add nsw i64 %92, 1
  %94 = icmp sle i64 %93, 24
  br i1 %94, label %95, label %97

95:                                               ; preds = %91
  %96 = call noalias ptr @_emalloc_24()
  br label %327

97:                                               ; preds = %91
  %98 = load i64, ptr %7, align 8, !tbaa !68
  %99 = add nsw i64 %98, 1
  %100 = icmp sle i64 %99, 32
  br i1 %100, label %101, label %103

101:                                              ; preds = %97
  %102 = call noalias ptr @_emalloc_32()
  br label %325

103:                                              ; preds = %97
  %104 = load i64, ptr %7, align 8, !tbaa !68
  %105 = add nsw i64 %104, 1
  %106 = icmp sle i64 %105, 40
  br i1 %106, label %107, label %109

107:                                              ; preds = %103
  %108 = call noalias ptr @_emalloc_40()
  br label %323

109:                                              ; preds = %103
  %110 = load i64, ptr %7, align 8, !tbaa !68
  %111 = add nsw i64 %110, 1
  %112 = icmp sle i64 %111, 48
  br i1 %112, label %113, label %115

113:                                              ; preds = %109
  %114 = call noalias ptr @_emalloc_48()
  br label %321

115:                                              ; preds = %109
  %116 = load i64, ptr %7, align 8, !tbaa !68
  %117 = add nsw i64 %116, 1
  %118 = icmp sle i64 %117, 56
  br i1 %118, label %119, label %121

119:                                              ; preds = %115
  %120 = call noalias ptr @_emalloc_56()
  br label %319

121:                                              ; preds = %115
  %122 = load i64, ptr %7, align 8, !tbaa !68
  %123 = add nsw i64 %122, 1
  %124 = icmp sle i64 %123, 64
  br i1 %124, label %125, label %127

125:                                              ; preds = %121
  %126 = call noalias ptr @_emalloc_64()
  br label %317

127:                                              ; preds = %121
  %128 = load i64, ptr %7, align 8, !tbaa !68
  %129 = add nsw i64 %128, 1
  %130 = icmp sle i64 %129, 80
  br i1 %130, label %131, label %133

131:                                              ; preds = %127
  %132 = call noalias ptr @_emalloc_80()
  br label %315

133:                                              ; preds = %127
  %134 = load i64, ptr %7, align 8, !tbaa !68
  %135 = add nsw i64 %134, 1
  %136 = icmp sle i64 %135, 96
  br i1 %136, label %137, label %139

137:                                              ; preds = %133
  %138 = call noalias ptr @_emalloc_96()
  br label %313

139:                                              ; preds = %133
  %140 = load i64, ptr %7, align 8, !tbaa !68
  %141 = add nsw i64 %140, 1
  %142 = icmp sle i64 %141, 112
  br i1 %142, label %143, label %145

143:                                              ; preds = %139
  %144 = call noalias ptr @_emalloc_112()
  br label %311

145:                                              ; preds = %139
  %146 = load i64, ptr %7, align 8, !tbaa !68
  %147 = add nsw i64 %146, 1
  %148 = icmp sle i64 %147, 128
  br i1 %148, label %149, label %151

149:                                              ; preds = %145
  %150 = call noalias ptr @_emalloc_128()
  br label %309

151:                                              ; preds = %145
  %152 = load i64, ptr %7, align 8, !tbaa !68
  %153 = add nsw i64 %152, 1
  %154 = icmp sle i64 %153, 160
  br i1 %154, label %155, label %157

155:                                              ; preds = %151
  %156 = call noalias ptr @_emalloc_160()
  br label %307

157:                                              ; preds = %151
  %158 = load i64, ptr %7, align 8, !tbaa !68
  %159 = add nsw i64 %158, 1
  %160 = icmp sle i64 %159, 192
  br i1 %160, label %161, label %163

161:                                              ; preds = %157
  %162 = call noalias ptr @_emalloc_192()
  br label %305

163:                                              ; preds = %157
  %164 = load i64, ptr %7, align 8, !tbaa !68
  %165 = add nsw i64 %164, 1
  %166 = icmp sle i64 %165, 224
  br i1 %166, label %167, label %169

167:                                              ; preds = %163
  %168 = call noalias ptr @_emalloc_224()
  br label %303

169:                                              ; preds = %163
  %170 = load i64, ptr %7, align 8, !tbaa !68
  %171 = add nsw i64 %170, 1
  %172 = icmp sle i64 %171, 256
  br i1 %172, label %173, label %175

173:                                              ; preds = %169
  %174 = call noalias ptr @_emalloc_256()
  br label %301

175:                                              ; preds = %169
  %176 = load i64, ptr %7, align 8, !tbaa !68
  %177 = add nsw i64 %176, 1
  %178 = icmp sle i64 %177, 320
  br i1 %178, label %179, label %181

179:                                              ; preds = %175
  %180 = call noalias ptr @_emalloc_320()
  br label %299

181:                                              ; preds = %175
  %182 = load i64, ptr %7, align 8, !tbaa !68
  %183 = add nsw i64 %182, 1
  %184 = icmp sle i64 %183, 384
  br i1 %184, label %185, label %187

185:                                              ; preds = %181
  %186 = call noalias ptr @_emalloc_384()
  br label %297

187:                                              ; preds = %181
  %188 = load i64, ptr %7, align 8, !tbaa !68
  %189 = add nsw i64 %188, 1
  %190 = icmp sle i64 %189, 448
  br i1 %190, label %191, label %193

191:                                              ; preds = %187
  %192 = call noalias ptr @_emalloc_448()
  br label %295

193:                                              ; preds = %187
  %194 = load i64, ptr %7, align 8, !tbaa !68
  %195 = add nsw i64 %194, 1
  %196 = icmp sle i64 %195, 512
  br i1 %196, label %197, label %199

197:                                              ; preds = %193
  %198 = call noalias ptr @_emalloc_512()
  br label %293

199:                                              ; preds = %193
  %200 = load i64, ptr %7, align 8, !tbaa !68
  %201 = add nsw i64 %200, 1
  %202 = icmp sle i64 %201, 640
  br i1 %202, label %203, label %205

203:                                              ; preds = %199
  %204 = call noalias ptr @_emalloc_640()
  br label %291

205:                                              ; preds = %199
  %206 = load i64, ptr %7, align 8, !tbaa !68
  %207 = add nsw i64 %206, 1
  %208 = icmp sle i64 %207, 768
  br i1 %208, label %209, label %211

209:                                              ; preds = %205
  %210 = call noalias ptr @_emalloc_768()
  br label %289

211:                                              ; preds = %205
  %212 = load i64, ptr %7, align 8, !tbaa !68
  %213 = add nsw i64 %212, 1
  %214 = icmp sle i64 %213, 896
  br i1 %214, label %215, label %217

215:                                              ; preds = %211
  %216 = call noalias ptr @_emalloc_896()
  br label %287

217:                                              ; preds = %211
  %218 = load i64, ptr %7, align 8, !tbaa !68
  %219 = add nsw i64 %218, 1
  %220 = icmp sle i64 %219, 1024
  br i1 %220, label %221, label %223

221:                                              ; preds = %217
  %222 = call noalias ptr @_emalloc_1024()
  br label %285

223:                                              ; preds = %217
  %224 = load i64, ptr %7, align 8, !tbaa !68
  %225 = add nsw i64 %224, 1
  %226 = icmp sle i64 %225, 1280
  br i1 %226, label %227, label %229

227:                                              ; preds = %223
  %228 = call noalias ptr @_emalloc_1280()
  br label %283

229:                                              ; preds = %223
  %230 = load i64, ptr %7, align 8, !tbaa !68
  %231 = add nsw i64 %230, 1
  %232 = icmp sle i64 %231, 1536
  br i1 %232, label %233, label %235

233:                                              ; preds = %229
  %234 = call noalias ptr @_emalloc_1536()
  br label %281

235:                                              ; preds = %229
  %236 = load i64, ptr %7, align 8, !tbaa !68
  %237 = add nsw i64 %236, 1
  %238 = icmp sle i64 %237, 1792
  br i1 %238, label %239, label %241

239:                                              ; preds = %235
  %240 = call noalias ptr @_emalloc_1792()
  br label %279

241:                                              ; preds = %235
  %242 = load i64, ptr %7, align 8, !tbaa !68
  %243 = add nsw i64 %242, 1
  %244 = icmp sle i64 %243, 2048
  br i1 %244, label %245, label %247

245:                                              ; preds = %241
  %246 = call noalias ptr @_emalloc_2048()
  br label %277

247:                                              ; preds = %241
  %248 = load i64, ptr %7, align 8, !tbaa !68
  %249 = add nsw i64 %248, 1
  %250 = icmp sle i64 %249, 2560
  br i1 %250, label %251, label %253

251:                                              ; preds = %247
  %252 = call noalias ptr @_emalloc_2560()
  br label %275

253:                                              ; preds = %247
  %254 = load i64, ptr %7, align 8, !tbaa !68
  %255 = add nsw i64 %254, 1
  %256 = icmp sle i64 %255, 3072
  br i1 %256, label %257, label %259

257:                                              ; preds = %253
  %258 = call noalias ptr @_emalloc_3072()
  br label %273

259:                                              ; preds = %253
  %260 = load i64, ptr %7, align 8, !tbaa !68
  %261 = add nsw i64 %260, 1
  %262 = icmp ule i64 %261, 2093056
  br i1 %262, label %263, label %267

263:                                              ; preds = %259
  %264 = load i64, ptr %7, align 8, !tbaa !68
  %265 = add nsw i64 %264, 1
  %266 = call noalias ptr @_emalloc_large(i64 noundef %265) #22
  br label %271

267:                                              ; preds = %259
  %268 = load i64, ptr %7, align 8, !tbaa !68
  %269 = add nsw i64 %268, 1
  %270 = call noalias ptr @_emalloc_huge(i64 noundef %269) #22
  br label %271

271:                                              ; preds = %267, %263
  %272 = phi ptr [ %266, %263 ], [ %270, %267 ]
  br label %273

273:                                              ; preds = %271, %257
  %274 = phi ptr [ %258, %257 ], [ %272, %271 ]
  br label %275

275:                                              ; preds = %273, %251
  %276 = phi ptr [ %252, %251 ], [ %274, %273 ]
  br label %277

277:                                              ; preds = %275, %245
  %278 = phi ptr [ %246, %245 ], [ %276, %275 ]
  br label %279

279:                                              ; preds = %277, %239
  %280 = phi ptr [ %240, %239 ], [ %278, %277 ]
  br label %281

281:                                              ; preds = %279, %233
  %282 = phi ptr [ %234, %233 ], [ %280, %279 ]
  br label %283

283:                                              ; preds = %281, %227
  %284 = phi ptr [ %228, %227 ], [ %282, %281 ]
  br label %285

285:                                              ; preds = %283, %221
  %286 = phi ptr [ %222, %221 ], [ %284, %283 ]
  br label %287

287:                                              ; preds = %285, %215
  %288 = phi ptr [ %216, %215 ], [ %286, %285 ]
  br label %289

289:                                              ; preds = %287, %209
  %290 = phi ptr [ %210, %209 ], [ %288, %287 ]
  br label %291

291:                                              ; preds = %289, %203
  %292 = phi ptr [ %204, %203 ], [ %290, %289 ]
  br label %293

293:                                              ; preds = %291, %197
  %294 = phi ptr [ %198, %197 ], [ %292, %291 ]
  br label %295

295:                                              ; preds = %293, %191
  %296 = phi ptr [ %192, %191 ], [ %294, %293 ]
  br label %297

297:                                              ; preds = %295, %185
  %298 = phi ptr [ %186, %185 ], [ %296, %295 ]
  br label %299

299:                                              ; preds = %297, %179
  %300 = phi ptr [ %180, %179 ], [ %298, %297 ]
  br label %301

301:                                              ; preds = %299, %173
  %302 = phi ptr [ %174, %173 ], [ %300, %299 ]
  br label %303

303:                                              ; preds = %301, %167
  %304 = phi ptr [ %168, %167 ], [ %302, %301 ]
  br label %305

305:                                              ; preds = %303, %161
  %306 = phi ptr [ %162, %161 ], [ %304, %303 ]
  br label %307

307:                                              ; preds = %305, %155
  %308 = phi ptr [ %156, %155 ], [ %306, %305 ]
  br label %309

309:                                              ; preds = %307, %149
  %310 = phi ptr [ %150, %149 ], [ %308, %307 ]
  br label %311

311:                                              ; preds = %309, %143
  %312 = phi ptr [ %144, %143 ], [ %310, %309 ]
  br label %313

313:                                              ; preds = %311, %137
  %314 = phi ptr [ %138, %137 ], [ %312, %311 ]
  br label %315

315:                                              ; preds = %313, %131
  %316 = phi ptr [ %132, %131 ], [ %314, %313 ]
  br label %317

317:                                              ; preds = %315, %125
  %318 = phi ptr [ %126, %125 ], [ %316, %315 ]
  br label %319

319:                                              ; preds = %317, %119
  %320 = phi ptr [ %120, %119 ], [ %318, %317 ]
  br label %321

321:                                              ; preds = %319, %113
  %322 = phi ptr [ %114, %113 ], [ %320, %319 ]
  br label %323

323:                                              ; preds = %321, %107
  %324 = phi ptr [ %108, %107 ], [ %322, %321 ]
  br label %325

325:                                              ; preds = %323, %101
  %326 = phi ptr [ %102, %101 ], [ %324, %323 ]
  br label %327

327:                                              ; preds = %325, %95
  %328 = phi ptr [ %96, %95 ], [ %326, %325 ]
  br label %329

329:                                              ; preds = %327, %89
  %330 = phi ptr [ %90, %89 ], [ %328, %327 ]
  br label %331

331:                                              ; preds = %329, %83
  %332 = phi ptr [ %84, %83 ], [ %330, %329 ]
  br label %337

333:                                              ; preds = %75
  %334 = load i64, ptr %7, align 8, !tbaa !68
  %335 = add nsw i64 %334, 1
  %336 = call noalias ptr @_emalloc(i64 noundef %335) #22
  br label %337

337:                                              ; preds = %333, %331
  %338 = phi ptr [ %332, %331 ], [ %336, %333 ]
  br label %343

339:                                              ; preds = %64
  %340 = load i64, ptr %7, align 8, !tbaa !68
  %341 = add nsw i64 %340, 1
  %342 = alloca i8, i64 %341, align 16
  br label %343

343:                                              ; preds = %339, %337
  %344 = phi ptr [ %338, %337 ], [ %342, %339 ]
  store ptr %344, ptr %5, align 8, !tbaa !67
  %345 = load ptr, ptr %5, align 8, !tbaa !67
  %346 = load ptr, ptr %3, align 8, !tbaa !63
  %347 = getelementptr inbounds nuw %struct.sapi_header_struct, ptr %346, i32 0, i32 0
  %348 = load ptr, ptr %347, align 8, !tbaa !66
  %349 = load i64, ptr %7, align 8, !tbaa !68
  call void @llvm.memcpy.p0.p0.i64(ptr align 1 %345, ptr align 1 %348, i64 %349, i1 false)
  %350 = load ptr, ptr %5, align 8, !tbaa !67
  %351 = load i64, ptr %7, align 8, !tbaa !68
  %352 = getelementptr inbounds i8, ptr %350, i64 %351
  store i8 0, ptr %352, align 1, !tbaa !11
  br label %353

353:                                              ; preds = %366, %343
  %354 = load ptr, ptr %6, align 8, !tbaa !67
  %355 = getelementptr inbounds nuw i8, ptr %354, i32 1
  store ptr %355, ptr %6, align 8, !tbaa !67
  br label %356

356:                                              ; preds = %353
  %357 = load ptr, ptr %6, align 8, !tbaa !67
  %358 = load i8, ptr %357, align 1, !tbaa !11
  %359 = sext i8 %358 to i32
  %360 = icmp eq i32 %359, 32
  br i1 %360, label %366, label %361

361:                                              ; preds = %356
  %362 = load ptr, ptr %6, align 8, !tbaa !67
  %363 = load i8, ptr %362, align 1, !tbaa !11
  %364 = sext i8 %363 to i32
  %365 = icmp eq i32 %364, 9
  br label %366

366:                                              ; preds = %361, %356
  %367 = phi i1 [ true, %356 ], [ %365, %361 ]
  br i1 %367, label %353, label %368

368:                                              ; preds = %366
  %369 = load ptr, ptr %4, align 8, !tbaa !9
  %370 = load ptr, ptr %5, align 8, !tbaa !67
  %371 = load i64, ptr %7, align 8, !tbaa !68
  %372 = trunc i64 %371 to i32
  %373 = zext i32 %372 to i64
  %374 = load ptr, ptr %6, align 8, !tbaa !67
  %375 = load ptr, ptr %3, align 8, !tbaa !63
  %376 = getelementptr inbounds nuw %struct.sapi_header_struct, ptr %375, i32 0, i32 1
  %377 = load i64, ptr %376, align 8, !tbaa !64
  %378 = load ptr, ptr %6, align 8, !tbaa !67
  %379 = load ptr, ptr %3, align 8, !tbaa !63
  %380 = getelementptr inbounds nuw %struct.sapi_header_struct, ptr %379, i32 0, i32 0
  %381 = load ptr, ptr %380, align 8, !tbaa !66
  %382 = ptrtoint ptr %378 to i64
  %383 = ptrtoint ptr %381 to i64
  %384 = sub i64 %382, %383
  %385 = sub i64 %377, %384
  call void @add_assoc_stringl_ex(ptr noundef %369, ptr noundef %370, i64 noundef %373, ptr noundef %374, i64 noundef %385)
  br label %386

386:                                              ; preds = %368
  %387 = load i8, ptr %8, align 1, !tbaa !69, !range !70, !noundef !71
  %388 = trunc i8 %387 to i1
  %389 = xor i1 %388, true
  %390 = xor i1 %389, true
  %391 = zext i1 %390 to i32
  %392 = sext i32 %391 to i64
  %393 = call i64 @llvm.expect.i64(i64 %392, i64 0)
  %394 = icmp ne i64 %393, 0
  br i1 %394, label %395, label %397

395:                                              ; preds = %386
  %396 = load ptr, ptr %5, align 8, !tbaa !67
  call void @_efree(ptr noundef %396)
  br label %397

397:                                              ; preds = %395, %386
  br label %398

398:                                              ; preds = %397
  br label %399

399:                                              ; preds = %398
  br label %400

400:                                              ; preds = %399, %61
  br label %401

401:                                              ; preds = %400, %27, %13
  br label %402

402:                                              ; preds = %401, %2
  call void @llvm.lifetime.end.p0(i64 1, ptr %8) #20
  call void @llvm.lifetime.end.p0(i64 8, ptr %7) #20
  call void @llvm.lifetime.end.p0(i64 8, ptr %6) #20
  call void @llvm.lifetime.end.p0(i64 8, ptr %5) #20
  ret void
}