; Function Attrs: nounwind uwtable
define internal void @add_response_header(ptr noundef readonly captures(none) %0, ptr noundef %1) #0 {
  %3 = getelementptr inbounds nuw i8, ptr %0, i64 8
  %4 = load i64, ptr %3, align 8, !tbaa !59
  %.not = icmp eq i64 %4, 0
  br i1 %.not, label %.critedge, label %5

5:                                                ; preds = %2
  %6 = load ptr, ptr %0, align 8, !tbaa !61
  %7 = tail call ptr @strchr(ptr noundef nonnull dereferenceable(1) %6, i32 noundef 58) #30
  %8 = ptrtoint ptr %7 to i64
  %9 = ptrtoint ptr %6 to i64
  %10 = sub i64 %8, %9
  %11 = icmp ne ptr %7, null
  %12 = icmp sgt i64 %10, 0
  %or.cond = and i1 %11, %12
  br i1 %or.cond, label %.preheader, label %.critedge

.preheader:                                       ; preds = %5
  %invariant.gep = getelementptr i8, ptr %6, i64 -1
  br label %13

13:                                               ; preds = %.preheader, %.critedge3
  %.07182 = phi i64 [ %10, %.preheader ], [ %15, %.critedge3 ]
  %gep = getelementptr i8, ptr %invariant.gep, i64 %.07182
  %14 = load i8, ptr %gep, align 1, !tbaa !4
  switch i8 %14, label %17 [
    i8 32, label %.critedge3
    i8 9, label %.critedge3
  ]

.critedge3:                                       ; preds = %13, %13
  %15 = add nsw i64 %.07182, -1
  %16 = icmp sgt i64 %.07182, 1
  br i1 %16, label %13, label %.critedge

17:                                               ; preds = %13
  %18 = add nuw nsw i64 %.07182, 1
  %19 = icmp samesign ugt i64 %.07182, 32767
  br i1 %19, label %20, label %22, !prof !62

20:                                               ; preds = %17
  %21 = tail call noalias ptr @_emalloc(i64 noundef %18) #31
  br label %24

22:                                               ; preds = %17
  %23 = alloca i8, i64 %18, align 16
  br label %24

24:                                               ; preds = %20, %22
  %25 = phi ptr [ %23, %22 ], [ %21, %20 ]
  %26 = load ptr, ptr %0, align 8, !tbaa !61
  call void @llvm.memcpy.p0.p0.i64(ptr align 1 %25, ptr align 1 %26, i64 %.07182, i1 false)
  %27 = getelementptr inbounds nuw i8, ptr %25, i64 %.07182
  store i8 0, ptr %27, align 1, !tbaa !4
  br label %.critedge5

.critedge5:                                       ; preds = %.critedge5.backedge, %24
  %.0 = phi ptr [ %7, %24 ], [ %28, %.critedge5.backedge ]
  %28 = getelementptr inbounds nuw i8, ptr %.0, i64 1
  %29 = load i8, ptr %28, align 1, !tbaa !4
  switch i8 %29, label %30 [
    i8 32, label %.critedge5.backedge
    i8 9, label %.critedge5.backedge
  ]

.critedge5.backedge:                              ; preds = %.critedge5, %.critedge5
  br label %.critedge5

30:                                               ; preds = %.critedge5
  %31 = and i64 %.07182, 4294967295
  %32 = load i64, ptr %3, align 8, !tbaa !59
  %33 = ptrtoint ptr %28 to i64
  %34 = ptrtoint ptr %26 to i64
  %.neg = sub i64 %34, %33
  %35 = add i64 %.neg, %32
  call void @add_assoc_stringl_ex(ptr noundef %1, ptr noundef %25, i64 noundef %31, ptr noundef nonnull %28, i64 noundef %35) #29
  br i1 %19, label %36, label %.critedge, !prof !63

36:                                               ; preds = %30
  call void @_efree(ptr noundef %25) #29
  br label %.critedge

.critedge:                                        ; preds = %.critedge3, %5, %30, %36, %2
  ret void
}